target datalayout = "e-m:e-p270:32:32-p271:32:32-p272:64:64-i64:64-i128:128-f80:128-n8:16:32:64-S128"
target triple = "x86_64-pc-linux-gnu"

%struct._packet_info = type { ptr, ptr, i32, i32, %struct.nstime_t, %struct.nstime_t, %struct.nstime_t, i32, ptr, ptr, ptr, ptr, %struct._address, %struct._address, %struct._address, %struct._address, %struct._address, %struct._address, i32, ptr, i32, %struct.anon, i32, i32, i32, i32, ptr, i32, ptr, ptr, i16, i16, i32, i32, i16, i32, i32, ptr, ptr, ptr, i8, i8, i16, i16, i16, i32, i16, i16, ptr, ptr, ptr, ptr, ptr, i32 }
%struct.nstime_t = type { i64, i32 }
%struct._address = type { i32, i32, ptr, ptr }
%struct.anon = type { i8, [3 x i8] }

@hf_tcp_srcport = internal global i32 0, align 4
@hf_tcp_dstport = internal global i32 0, align 4
@.str.886 = private unnamed_addr constant [14 x i8] c"both (%u%s%u)\00", align 1
@.str.887 = private unnamed_addr constant [4 x i8] c"\E2\86\94\00", align 1

; Function Attrs: nounwind uwtable
define internal void @tcp_both_prompt(ptr noundef %0, ptr noundef %1) #0 {
  %3 = alloca ptr, align 8
  %4 = alloca ptr, align 8
  %5 = alloca i32, align 4
  %6 = alloca i32, align 4
  store ptr %0, ptr %3, align 8
  store ptr %1, ptr %4, align 8
  %7 = load ptr, ptr %3, align 8
  %8 = getelementptr inbounds %struct._packet_info, ptr %7, i32 0, i32 50
  %9 = load ptr, ptr %8, align 8
  %10 = load ptr, ptr %3, align 8
  %11 = load i32, ptr @hf_tcp_srcport, align 4
  %12 = load ptr, ptr %3, align 8
  %13 = getelementptr inbounds %struct._packet_info, ptr %12, i32 0, i32 40
  %14 = load i8, ptr %13, align 8
  %15 = zext i8 %14 to i32
  %16 = call ptr @p_get_proto_data(ptr noundef %9, ptr noundef %10, i32 noundef %11, i32 noundef %15)
  %17 = ptrtoint ptr %16 to i64
  %18 = trunc i64 %17 to i32
  store i32 %18, ptr %5, align 4
  %19 = load ptr, ptr %3, align 8
  %20 = getelementptr inbounds %struct._packet_info, ptr %19, i32 0, i32 50
  %21 = load ptr, ptr %20, align 8
  %22 = load ptr, ptr %3, align 8
  %23 = load i32, ptr @hf_tcp_dstport, align 4
  %24 = load ptr, ptr %3, align 8
  %25 = getelementptr inbounds %struct._packet_info, ptr %24, i32 0, i32 40
  %26 = load i8, ptr %25, align 8
  %27 = zext i8 %26 to i32
  %28 = call ptr @p_get_proto_data(ptr noundef %21, ptr noundef %22, i32 noundef %23, i32 noundef %27)
  %29 = ptrtoint ptr %28 to i64
  %30 = trunc i64 %29 to i32
  store i32 %30, ptr %6, align 4
  %31 = load ptr, ptr %4, align 8
  %32 = load i32, ptr %5, align 4
  %33 = load i32, ptr %6, align 4
  %34 = call i32 (ptr, i64, ptr, ...) @snprintf(ptr noundef %31, i64 noundef 200, ptr noundef @.str.886, i32 noundef %32, ptr noundef @.str.887, i32 noundef %33) #16
  ret void
}