; Function Attrs: nounwind uwtable
define internal void @tcp_both_prompt(ptr noundef %0, ptr noundef writeonly captures(none) %1) #0 {
  %3 = getelementptr inbounds nuw i8, ptr %0, i64 408
  %4 = load ptr, ptr %3, align 8
  %5 = load i32, ptr @hf_tcp_srcport, align 4
  %6 = getelementptr inbounds nuw i8, ptr %0, i64 376
  %7 = load i8, ptr %6, align 8
  %8 = zext i8 %7 to i32
  %9 = tail call ptr @p_get_proto_data(ptr noundef %4, ptr noundef %0, i32 noundef %5, i32 noundef %8) #20
  %10 = ptrtoint ptr %9 to i64
  %11 = trunc i64 %10 to i32
  %12 = load ptr, ptr %3, align 8
  %13 = load i32, ptr @hf_tcp_dstport, align 4
  %14 = load i8, ptr %6, align 8
  %15 = zext i8 %14 to i32
  %16 = tail call ptr @p_get_proto_data(ptr noundef %12, ptr noundef %0, i32 noundef %13, i32 noundef %15) #20
  %17 = ptrtoint ptr %16 to i64
  %18 = trunc i64 %17 to i32
  %19 = tail call i32 (ptr, i64, ptr, ...) @snprintf(ptr noundef nonnull dereferenceable(1) %1, i64 noundef 200, ptr noundef nonnull @.str.886, i32 noundef %11, ptr noundef nonnull @.str.887, i32 noundef %18) #20
  ret void
}